###############################################################################
#
# IAR UBROF Linker V10.15.2.1487                          28/Sep/2025  15:28:20
# Copyright 1987-2023 IAR Systems AB.
#
#    Target Cpu    =  MSP430
#    Map file      =
#        "C:\Users\dong\Desktop\MSP430
#        Code\2025ches_msp430\kyber\opt\opt_kyber\Release\List\opt_kyber.map"
#    Output file 1 =
#        "C:\Users\dong\Desktop\MSP430
#        Code\2025ches_msp430\kyber\opt\opt_kyber\Release\Exe\opt_kyber.txt"
#                  =  Format: msp430_txt
#    Command line  =
#        -f "C:\Users\dong\Desktop\MSP430
#        Code\2025ches_msp430\kyber\opt\opt_kyber\Release\Exe\opt_kyber.txt.rsp"
#        ("C:\Users\dong\Desktop\MSP430
#        Code\2025ches_msp430\kyber\opt\opt_kyber\Release\Obj\asm_basemul_kyber.r43"
#        "C:\Users\dong\Desktop\MSP430
#        Code\2025ches_msp430\kyber\opt\opt_kyber\Release\Obj\asm_intt_kyber.r43"
#        "C:\Users\dong\Desktop\MSP430
#        Code\2025ches_msp430\kyber\opt\opt_kyber\Release\Obj\asm_ntt_kyber.r43"
#        "C:\Users\dong\Desktop\MSP430
#        Code\2025ches_msp430\kyber\opt\opt_kyber\Release\Obj\asm_reduce_kyber.r43"
#        "C:\Users\dong\Desktop\MSP430
#        Code\2025ches_msp430\kyber\opt\opt_kyber\Release\Obj\asm_sha3.r43"
#        "C:\Users\dong\Desktop\MSP430
#        Code\2025ches_msp430\kyber\opt\opt_kyber\Release\Obj\cbd.r43"
#        "C:\Users\dong\Desktop\MSP430
#        Code\2025ches_msp430\kyber\opt\opt_kyber\Release\Obj\fips202.r43"
#        "C:\Users\dong\Desktop\MSP430
#        Code\2025ches_msp430\kyber\opt\opt_kyber\Release\Obj\indcpa.r43"
#        "C:\Users\dong\Desktop\MSP430
#        Code\2025ches_msp430\kyber\opt\opt_kyber\Release\Obj\kem.r43"
#        "C:\Users\dong\Desktop\MSP430
#        Code\2025ches_msp430\kyber\opt\opt_kyber\Release\Obj\main.r43"
#        "C:\Users\dong\Desktop\MSP430
#        Code\2025ches_msp430\kyber\opt\opt_kyber\Release\Obj\matacc.r43"
#        "C:\Users\dong\Desktop\MSP430
#        Code\2025ches_msp430\kyber\opt\opt_kyber\Release\Obj\ntt.r43"
#        "C:\Users\dong\Desktop\MSP430
#        Code\2025ches_msp430\kyber\opt\opt_kyber\Release\Obj\poly.r43"
#        "C:\Users\dong\Desktop\MSP430
#        Code\2025ches_msp430\kyber\opt\opt_kyber\Release\Obj\polyvec.r43"
#        "C:\Users\dong\Desktop\MSP430
#        Code\2025ches_msp430\kyber\opt\opt_kyber\Release\Obj\randombytes.r43"
#        "C:\Users\dong\Desktop\MSP430
#        Code\2025ches_msp430\kyber\opt\opt_kyber\Release\Obj\reduce.r43"
#        "C:\Users\dong\Desktop\MSP430
#        Code\2025ches_msp430\kyber\opt\opt_kyber\Release\Obj\symmetric-shake.r43"
#        "C:\Users\dong\Desktop\MSP430
#        Code\2025ches_msp430\kyber\opt\opt_kyber\Release\Obj\verify.r43"
#        --output "C:\Users\dong\Desktop\MSP430
#        Code\2025ches_msp430\kyber\opt\opt_kyber\Release\Exe\opt_kyber.txt"
#        -Fmsp430_txt -l "C:\Users\dong\Desktop\MSP430
#        Code\2025ches_msp430\kyber\opt\opt_kyber\Release\List\opt_kyber.map"
#        -xams "-IC:\Program Files\IAR Systems\Embedded Workbench
#        9.1\430\LIB\\" --f "C:\Program Files\IAR Systems\Embedded Workbench
#        9.1\430\config\linker\lnk430f67791.xcl" (-cmsp430 -QCODE_I=CODE_ID
#        -QTLS16_I=TLS16_ID -D__iar_HWMUL=4C0 "-Z(CONST)INFO=1800-19FF"
#        "-Z(CONST)INFOA=1980-19FF" "-Z(CONST)INFOB=1900-197F"
#        "-Z(CONST)INFOC=1880-18FF" "-Z(CONST)INFOD=1800-187F"
#        "-Z(DATA)DATA16_I,DATA16_Z,DATA16_N,TLS16_I=1C00-9BFF"
#        "-Z(DATA)DATA16_HEAP+_DATA16_HEAP_SIZE" "-Z(DATA)CODE_I"
#        "-Z(DATA)DATA20_I,DATA20_Z,DATA20_N,DATA20_HEAP+_DATA20_HEAP_SIZE"
#        "-Z(DATA)CSTACK+_STACK_SIZE#"
#        "-Z(CONST)DATA16_C,DATA16_ID,TLS16_ID,DIFUNCT,CHECKSUM=C000-FF7F"
#        "-Z(CODE)CSTART,ISR_CODE,CODE16=C000-FF7F"
#        "-P(CODE)CODE=C000-FF7F,10000-8BFF7"
#        "-Z(CONST)DATA20_C,DATA20_ID,CODE_ID=C000-FF7F,10040-8BFF7"
#        "-Z(CODE)INTVEC=FF80-FFFF" "-Z(CODE)RESET=FFFE-FFFF") -f "C:\Program
#        Files\IAR Systems\Embedded Workbench
#        9.1\430\config\linker\multiplier32.xcl" (-e?Mul8Hw=?Mul8
#        -e?Mul16Hw=?Mul16 -e?Mul16to32uHw=?Mul16to32u
#        -e?Mul16to32sHw=?Mul16to32s -e?Mul32Hw32=?Mul32 -e?Mul64Hw32=_Mul64i
#        -e?Mul32u32uto64iHw32=_Mul32u32uto64i -e?Mul32fHw32=_Mul32f
#        -e_Mul64fHw32Ptr=_Mul64fPtr) -D_STACK_SIZE=A0 "C:\Program Files\IAR
#        Systems\Embedded Workbench 9.1\430\lib\dlib\dl430xlsfn.r43"
#        -e_PrintfLarge=_Printf -e_ScanfLarge=_Scanf -D_DATA16_HEAP_SIZE=A0
#        --entry __program_start -D_DATA20_HEAP_SIZE=50 --text_out locale)
#
###############################################################################






                ****************************************
                *                                      *
                *            PROGRAM ENTRY             *
                *                                      *
                ****************************************

  ADDRESS  SPACE  TYPE         MODULE
  -------  -----  ----         ------
   0xC100         Relocatable  ?cstart




                ****************************************
                *                                      *
                *            RUNTIME MODEL             *
                *                                      *
                ****************************************

  ATTRIBUTE                   VALUE
  ---------                   -----
  __Heap_Handler              Basic
  __SystemLibrary             DLib
  __code_model                large
  __core                      430X
  __data_model                small
  __dlib_file_descriptor      0
  __dlib_full_locale_support  0
  __double_size               32
  __pic                       no
  __reg_r4                    free
  __reg_r5                    free
  __rt_version                3


                ****************************************
                *                                      *
                *    AUTOMATIC SYMBOL REDIRECTIONS     *
                *                                      *
                ****************************************

                   There are no automatic symbol redirections.



                ****************************************
                *                                      *
                *              ENTRY LIST              *
                *                                      *
                ****************************************

ENTRY                    SPACE  ADDRESS     KIND  TYPE  MODULE
-----                    -----  -------     ----  ----  ------
_DATA20_HEAP_SIZE                   0x0050  Pub         ?ABS_ENTRY_MOD [0]
_DATA16_HEAP_SIZE                   0x00A0  Pub         ?ABS_ENTRY_MOD [0]
_STACK_SIZE                         0x00A0  Pub         ?ABS_ENTRY_MOD [0]
_A_WDTCTL_L                         0x015C  Pub   Data  main
__iar_HWMUL                         0x04C0  Pub         ?ABS_ENTRY_MOD [0]
zetas                               0xC000  Pub   Data  ntt
__program_start                     0xC100  Pub         ?cstart [1]
?cstart_begin                       0xC100  Pub         ?cstart [1]
?cstart_call_main                   0xC104  Pub         ?cstart [1]
cmp_poly_compress                   0xC10C  Pub   Code  poly
?cstart_end                         0xC10C  Pub         ?cstart [1]
cmp_poly_packcompress               0xC1F0  Pub   Code  poly
poly_compress                       0xC45C  Pub   Code  poly
poly_decompress                     0xC530  Pub   Code  poly
poly_tobytes                        0xC576  Pub   Code  poly
poly_frombytes                      0xC5C0  Pub   Code  poly
poly_frommsg                        0xC620  Pub   Code  poly
poly_tomsg                          0xC6D8  Pub   Code  poly
poly_addnoise_eta1                  0xC746  Pub   Code  poly
poly_addnoise_eta2                  0xC76E  Pub   Code  poly
poly_getnoise_eta1                  0xC792  Pub   Code  poly
poly_ntt                            0xC7AE  Pub   Code  poly
poly_invntt_tomont                  0xC7C0  Pub   Code  poly
poly_basemul_montgomery             0xC7C4  Pub   Code  poly
poly_frombytes_mul                  0xC7CC  Pub   Code  poly
poly_frombytes_mul_acc              0xC862  Pub   Code  poly
poly_basemul_acc                    0xC912  Pub   Code  poly
asm_poly_basemul                    0xC96E  Pub   Code  asm_basemul_kyber
asm_basemul                         0xCAF0  Pub   Code  asm_basemul_kyber
keccak_absorb                       0xCC5E  Loc   Code  fips202
poly_packcompress                   0xCF34  Pub   Code  poly
matacc                              0xD18C  Pub   Code  matacc
shake128_absorb                     0xD34C  Pub   Code  fips202
shake128_squeezeblocks              0xD358  Pub   Code  fips202
shake256                            0xD370  Pub   Code  fips202
sha3_256                            0xD424  Pub   Code  fips202
sha3_512                            0xD484  Pub   Code  fips202
poly_unpackdecompress               0xD4E4  Pub   Code  poly
indcpa_enc_cmp                      0xD640  Pub   Code  indcpa
asm_poly_tomont                     0xD77E  Pub   Code  asm_reduce_kyber
asm_poly_barrett                    0xD7E0  Pub   Code  asm_reduce_kyber
asm_NTT_poly_barrett                0xD840  Pub         asm_reduce_kyber
indcpa_enc                          0xD89A  Pub   Code  indcpa
indcpa_keypair                      0xD99A  Pub   Code  indcpa
basemul                             0xDA74  Pub   Code  ntt
keccak_squeezeblocks                0xDB32  Loc   Code  fips202
basemul_OP                          0xDBEE  Pub   Code  ntt
poly_cbd_eta1                       0xDCAA  Pub   Code  cbd
crypto_kem_dec                      0xDD48  Pub   Code  kem
poly_cbd_eta2                       0xDDE0  Pub   Code  cbd
crypto_kem_enc                      0xDE68  Pub   Code  kem
indcpa_dec                          0xDEE6  Pub   Code  indcpa
kyber_shake128_absorb               0xDF60  Pub   Code  symmetric-shake
kyber_shake256_prf                  0xDF92  Pub   Code  symmetric-shake
?ShiftRight32u                      0xDFC0  Pub         ?ShiftRight32u [1]
?ShiftRight32u_7                    0xE000  Pub         ?ShiftRight32u [1]
?ShiftRight32u_6                    0xE004  Pub         ?ShiftRight32u [1]
?ShiftRight32u_5                    0xE008  Pub         ?ShiftRight32u [1]
?ShiftRight32u_4                    0xE00C  Pub         ?ShiftRight32u [1]
?ShiftRight32u_3                    0xE010  Pub         ?ShiftRight32u [1]
?ShiftRight32u_2                    0xE014  Pub         ?ShiftRight32u [1]
cmov                                0xE01E  Pub   Code  verify
main                                0xE07C  Pub   Code  main
crypto_kem_keypair                  0xE0D0  Pub   Code  kem
randombytes                         0xE122  Pub   Code  randombytes
montgomery_reduce                   0xE164  Pub   Code  reduce
poly_sub                            0xE19C  Pub   Code  poly
poly_add                            0xE1CE  Pub   Code  poly
polyvec_tobytes                     0xE200  Pub   Code  polyvec
?ShiftLeft32_6                      0xE21E  Pub         ?ShiftLeft32 [1]
?ShiftLeft32_5                      0xE222  Pub         ?ShiftLeft32 [1]
?ShiftLeft32_4                      0xE226  Pub         ?ShiftLeft32 [1]
?ShiftLeft32_3                      0xE22A  Pub         ?ShiftLeft32 [1]
polyvec_ntt                         0xE238  Pub   Code  polyvec
memcpy                              0xE24E  Pub   Code  ?memcpy [1]
?ClearMemoryWords                   0xE260  Pub         ?ClearMemoryWords [1]
?ShiftRight16s_3                    0xE270  Pub         ?ShiftRight16s_n [1]
_exit                               0xE278  Pub   Code  ?_exit [1]
exit                                0xE27C  Pub   Code  ?exit [1]
poly_reduce                         0xE280  Pub   Code  poly
__exit                              0xE284  Pub   Code  ?__exit [1]
?reset_vector                       0xFFFE  Pub         ?reset_vector [1]
asm_keccak1600                  0x00010000  Pub   Code  asm_keccak1600 [2]
asm_invntt_merging              0x00023BB4  Pub   Code  asm_intt_kyber
asm_ntt_merging                 0x0002CEAE  Pub   Code  asm_ntt_kyber

[0] = Command line (linker generated)
[1] = C:\Program Files\IAR Systems\Embedded Workbench 9.1\430\lib\dlib\dl430xlsfn.r43
[2] = C:\Users\dong\Desktop\MSP430 Code\2025ches_msp430\kyber\opt\opt_kyber\Release\Obj\asm_sha3.r43


                ****************************************
                *                                      *
                *              MODULE MAP              *
                *                                      *
                ****************************************

Linker generated:
  Module: ?FILLER_BYTES
**************************************************************
Linker generated:
  Module: ?ABS_ENTRY_MOD

      Absolute module symbols:
        _DATA20_HEAP_SIZE  0x0050  Pub
        _DATA16_HEAP_SIZE  0x00A0  Pub
        _STACK_SIZE        0x00A0  Pub
        __iar_HWMUL        0x04C0  Pub
**************************************************************
File: C:\Users\dong\Desktop\MSP430 Code\2025ches_msp430\kyber\opt\opt_kyber\Release\Obj\asm_basemul_kyber.r43
  Module: asm_basemul_kyber
       Segment part 0, <CODE> 1 [root]
                      (was CODE)
       Address:  0xC96E Size: 0x182 Align: 2(1)
      asm_poly_basemul     0xC96E  Pub  Ref by:   poly_basemul_montgomery (poly)
    --------------------------------------------------
       Segment part 1, <CODE> 1 [root]
                      (was CODE)
       Address:  0xCAF0 Size: 0x16E Align: 2(1)
      asm_basemul          0xCAF0  Pub  Ref by:   matacc (matacc)
**************************************************************
File: C:\Users\dong\Desktop\MSP430 Code\2025ches_msp430\kyber\opt\opt_kyber\Release\Obj\asm_intt_kyber.r43
  Module: asm_intt_kyber
       Segment part 0, <CODE> 2 [root]
                      (was CODE)
       Address:  0x00023BB4 Size: 0x92FA Align: 2(1)
      asm_invntt_merging   0x00023BB4  Pub  Ref by:   poly_invntt_tomont (poly)
**************************************************************
File: C:\Users\dong\Desktop\MSP430 Code\2025ches_msp430\kyber\opt\opt_kyber\Release\Obj\asm_ntt_kyber.r43
  Module: asm_ntt_kyber
       Segment part 0, <CODE> 2 [root]
                      (was CODE)
       Address:  0x0002CEAE Size: 0x53B4 Align: 2(1)
      asm_ntt_merging      0x0002CEAE  Pub  Ref by:   poly_ntt (poly)
**************************************************************
File: C:\Users\dong\Desktop\MSP430 Code\2025ches_msp430\kyber\opt\opt_kyber\Release\Obj\asm_reduce_kyber.r43
  Module: asm_reduce_kyber
       Segment part 0, <CODE> 1 [root]
                      (was CODE)
       Address:  0xD77E Size: 0x62 Align: 2(1)
      asm_poly_tomont      0xD77E  Pub
    --------------------------------------------------
       Segment part 1, <CODE> 1 [root]
                      (was CODE)
       Address:  0xD7E0 Size: 0x60 Align: 2(1)
      asm_poly_barrett     0xD7E0  Pub  Ref by:   poly_reduce (poly)
                                                  poly_frombytes_mul_acc (poly)
                                                  poly_ntt (poly)
    --------------------------------------------------
       Segment part 2, <CODE> 1 [root]
                      (was CODE)
       Address:  0xD840 Size: 0x5A Align: 2(1)
      asm_NTT_poly_barrett  0xD840  Pub
**************************************************************
File: C:\Users\dong\Desktop\MSP430 Code\2025ches_msp430\kyber\opt\opt_kyber\Release\Obj\asm_sha3.r43
  Module: asm_keccak1600
       Segment part 0, <CODE> 2 [root]
                      (was CODE)
       Address:  0x00010000 Size: 0x13BB4 Align: 2(1)
      asm_keccak1600       0x00010000  Pub  Ref by:   keccak_squeezeblocks (fips202)
                                                      keccak_absorb (fips202)
**************************************************************
File: C:\Users\dong\Desktop\MSP430 Code\2025ches_msp430\kyber\opt\opt_kyber\Release\Obj\cbd.r43
  Module: cbd
       Segment part 2, <CODE> 1
                      (was CODE)
       Address:  0xDCAA Size: 0x9E Align: 2(1)
      poly_cbd_eta1        0xDCAA  Pub  Ref by:   Segment part 15 (poly)
    --------------------------------------------------
       Segment part 3, <CODE> 1
                      (was CODE)
       Address:  0xDDE0 Size: 0x88 Align: 2(1)
      poly_cbd_eta2        0xDDE0  Pub  Ref by:   poly_addnoise_eta2 (poly)
**************************************************************
File: C:\Users\dong\Desktop\MSP430 Code\2025ches_msp430\kyber\opt\opt_kyber\Release\Obj\fips202.r43
  Module: fips202
       Segment part 2, <CODE> 1
                      (was CODE)
       Address:  0xCC5E Size: 0x2D6 Align: 2(1)
       Ref by:   sha3_512
                 sha3_256
                 shake256
                 Segment part 20
      keccak_absorb        0xCC5E  Loc
    --------------------------------------------------
       Segment part 3, <CODE> 1
                      (was CODE)
       Address:  0xDB32 Size: 0xBC Align: 2(1)
       Ref by:   sha3_512
                 sha3_256
                 shake256
                 Segment part 19
      keccak_squeezeblocks  0xDB32  Loc
    --------------------------------------------------
       Segment part 17, <CODE> 1
                      (was CODE)
       Address:  0xD34C Size: 0xC Align: 2(1)
      shake128_absorb      0xD34C  Pub  Ref by:   kyber_shake128_absorb (symmetric-shake)
    --------------------------------------------------
       Segment part 18, <CODE> 1
                      (was CODE)
       Address:  0xD358 Size: 0x6 Align: 2(1)
      shake128_squeezeblocks  0xD358  Pub  Ref by:   matacc (matacc)
    --------------------------------------------------
       Segment part 19, <CODE> 1
                      (was CODE)
       Address:  0xD35E Size: 0x6 Align: 2(1)
       Ref by:   shake128_squeezeblocks
    --------------------------------------------------
       Segment part 20, <CODE> 1
                      (was CODE)
       Address:  0xD364 Size: 0x6 Align: 2(1)
       Ref by:   shake128_absorb
    --------------------------------------------------
       Segment part 21, <CODE> 1
                      (was CODE)
       Address:  0xD36A Size: 0x6 Align: 2(1)
       Ref by:   Segment part 20
                 Segment part 19
    --------------------------------------------------
       Segment part 30, <CODE> 1
                      (was CODE)
       Address:  0xD370 Size: 0xB4 Align: 2(1)
      shake256             0xD370  Pub  Ref by:   kyber_shake256_prf (symmetric-shake)
                                                  crypto_kem_dec (kem)
                                                  crypto_kem_enc (kem)
    --------------------------------------------------
       Segment part 38, <CODE> 1
                      (was CODE)
       Address:  0xD424 Size: 0x60 Align: 2(1)
      sha3_256             0xD424  Pub  Ref by:   crypto_kem_dec (kem)
                                                  crypto_kem_enc (kem)
                                                  crypto_kem_keypair (kem)
    --------------------------------------------------
       Segment part 52, <CODE> 1
                      (was CODE)
       Address:  0xD484 Size: 0x60 Align: 2(1)
      sha3_512             0xD484  Pub  Ref by:   crypto_kem_dec (kem)
                                                  crypto_kem_enc (kem)
                                                  indcpa_keypair (indcpa)
**************************************************************
File: C:\Users\dong\Desktop\MSP430 Code\2025ches_msp430\kyber\opt\opt_kyber\Release\Obj\indcpa.r43
  Module: indcpa
       Segment part 3, <CODE> 1
                      (was CODE)
       Address:  0xD99A Size: 0xDA Align: 2(1)
      indcpa_keypair       0xD99A  Pub  Ref by:   crypto_kem_keypair (kem)
    --------------------------------------------------
       Segment part 4, <CODE> 1
                      (was CODE)
       Address:  0xD89A Size: 0x100 Align: 2(1)
      indcpa_enc           0xD89A  Pub  Ref by:   crypto_kem_enc (kem)
    --------------------------------------------------
       Segment part 5, <CODE> 1
                      (was CODE)
       Address:  0xD640 Size: 0x13E Align: 2(1)
      indcpa_enc_cmp       0xD640  Pub  Ref by:   crypto_kem_dec (kem)
    --------------------------------------------------
       Segment part 6, <CODE> 1
                      (was CODE)
       Address:  0xDEE6 Size: 0x7A Align: 2(1)
      indcpa_dec           0xDEE6  Pub  Ref by:   crypto_kem_dec (kem)
**************************************************************
File: C:\Users\dong\Desktop\MSP430 Code\2025ches_msp430\kyber\opt\opt_kyber\Release\Obj\kem.r43
  Module: kem
       Segment part 2, <CODE> 1
                      (was CODE)
       Address:  0xE0D0 Size: 0x52 Align: 2(1)
      crypto_kem_keypair   0xE0D0  Pub  Ref by:   main (main)
    --------------------------------------------------
       Segment part 3, <CODE> 1
                      (was CODE)
       Address:  0xDE68 Size: 0x7E Align: 2(1)
      crypto_kem_enc       0xDE68  Pub  Ref by:   main (main)
    --------------------------------------------------
       Segment part 4, <CODE> 1
                      (was CODE)
       Address:  0xDD48 Size: 0x98 Align: 2(1)
      crypto_kem_dec       0xDD48  Pub  Ref by:   main (main)
**************************************************************
File: C:\Users\dong\Desktop\MSP430 Code\2025ches_msp430\kyber\opt\opt_kyber\Release\Obj\main.r43
  Module: main
       Segment part 1, DATA16_AN [root]
       Address:  0x015C Size: 0x2 Align: 1(0)
       Ref by:   main
      _A_WDTCTL_L          0x015C  Pub
    --------------------------------------------------
       Segment part 3, <CODE> 1
                      (was CODE)
       Address:  0xE07C Size: 0x54 Align: 2(1)
      main                 0xE07C  Pub  Ref by:   Segment part 27 (?cstart)
**************************************************************
File: C:\Users\dong\Desktop\MSP430 Code\2025ches_msp430\kyber\opt\opt_kyber\Release\Obj\matacc.r43
  Module: matacc
       Segment part 3, <CODE> 1
                      (was CODE)
       Address:  0xD18C Size: 0x1C0 Align: 2(1)
      matacc               0xD18C  Pub  Ref by:   indcpa_enc_cmp (indcpa)
                                                  indcpa_enc (indcpa)
                                                  indcpa_keypair (indcpa)
**************************************************************
File: C:\Users\dong\Desktop\MSP430 Code\2025ches_msp430\kyber\opt\opt_kyber\Release\Obj\ntt.r43
  Module: ntt
       Segment part 2, DATA16_C
       Address:  0xC000 Size: 0x100 Align: 2(1)
      zetas                0xC000  Pub  Ref by:   poly_basemul_acc (poly)
                                                  poly_frombytes_mul_acc (poly)
                                                  poly_frombytes_mul (poly)
                                                  poly_basemul_montgomery (poly)
                                                  matacc (matacc)
    --------------------------------------------------
       Segment part 5, <CODE> 1
                      (was CODE)
       Address:  0xDA74 Size: 0xBE Align: 2(1)
      basemul              0xDA74  Pub  Ref by:   poly_basemul_acc (poly)
    --------------------------------------------------
       Segment part 6, <CODE> 1
                      (was CODE)
       Address:  0xDBEE Size: 0xBC Align: 2(1)
      basemul_OP           0xDBEE  Pub  Ref by:   poly_frombytes_mul_acc (poly)
                                                  poly_frombytes_mul (poly)
**************************************************************
File: C:\Users\dong\Desktop\MSP430 Code\2025ches_msp430\kyber\opt\opt_kyber\Release\Obj\poly.r43
  Module: poly
       Segment part 2, <CODE> 1
                      (was CODE)
       Address:  0xCF34 Size: 0x258 Align: 2(1)
      poly_packcompress    0xCF34  Pub  Ref by:   indcpa_enc (indcpa)
    --------------------------------------------------
       Segment part 3, <CODE> 1
                      (was CODE)
       Address:  0xD4E4 Size: 0x15C Align: 2(1)
      poly_unpackdecompress  0xD4E4  Pub  Ref by:   indcpa_dec (indcpa)
    --------------------------------------------------
       Segment part 4, <CODE> 1
                      (was CODE)
       Address:  0xC10C Size: 0xDC Align: 2(1)
      cmp_poly_compress    0xC10C  Pub  Ref by:   indcpa_enc_cmp (indcpa)
    --------------------------------------------------
       Segment part 5, <CODE> 1
                      (was CODE)
       Address:  0xC1E8 Size: 0x8 Align: 2(1)
       Ref by:   poly_compress
                 cmp_poly_compress
    --------------------------------------------------
       Segment part 6, <CODE> 1
                      (was CODE)
       Address:  0xC1F0 Size: 0x264 Align: 2(1)
      cmp_poly_packcompress  0xC1F0  Pub  Ref by:   indcpa_enc_cmp (indcpa)
    --------------------------------------------------
       Segment part 7, <CODE> 1
                      (was CODE)
       Address:  0xC454 Size: 0x8 Align: 2(1)
       Ref by:   poly_frombytes_mul_acc
                 cmp_poly_packcompress
    --------------------------------------------------
       Segment part 8, <CODE> 1
                      (was CODE)
       Address:  0xC45C Size: 0xD4 Align: 2(1)
      poly_compress        0xC45C  Pub  Ref by:   indcpa_enc (indcpa)
    --------------------------------------------------
       Segment part 9, <CODE> 1
                      (was CODE)
       Address:  0xC530 Size: 0x46 Align: 2(1)
      poly_decompress      0xC530  Pub  Ref by:   indcpa_dec (indcpa)
    --------------------------------------------------
       Segment part 10, <CODE> 1
                      (was CODE)
       Address:  0xC576 Size: 0x4A Align: 2(1)
      poly_tobytes         0xC576  Pub  Ref by:   polyvec_tobytes (polyvec)
                                                  indcpa_keypair (indcpa)
    --------------------------------------------------
       Segment part 11, <CODE> 1
                      (was CODE)
       Address:  0xC5C0 Size: 0x60 Align: 2(1)
      poly_frombytes       0xC5C0  Pub  Ref by:   indcpa_enc_cmp (indcpa)
                                                  indcpa_enc (indcpa)
    --------------------------------------------------
       Segment part 12, <CODE> 1
                      (was CODE)
       Address:  0xC620 Size: 0xB8 Align: 2(1)
      poly_frommsg         0xC620  Pub  Ref by:   indcpa_enc_cmp (indcpa)
                                                  indcpa_enc (indcpa)
    --------------------------------------------------
       Segment part 13, <CODE> 1
                      (was CODE)
       Address:  0xC6D8 Size: 0x6E Align: 2(1)
      poly_tomsg           0xC6D8  Pub  Ref by:   indcpa_dec (indcpa)
    --------------------------------------------------
       Segment part 14, <CODE> 1
                      (was CODE)
       Address:  0xC746 Size: 0x18 Align: 2(1)
      poly_addnoise_eta1   0xC746  Pub  Ref by:   indcpa_keypair (indcpa)
    --------------------------------------------------
       Segment part 15, <CODE> 1
                      (was CODE)
       Address:  0xC75E Size: 0x8 Align: 2(1)
       Ref by:   poly_getnoise_eta1
                 poly_addnoise_eta1
    --------------------------------------------------
       Segment part 16, <CODE> 1
                      (was CODE)
       Address:  0xC766 Size: 0x8 Align: 2(1)
       Ref by:   poly_addnoise_eta2
                 Segment part 15
    --------------------------------------------------
       Segment part 17, <CODE> 1
                      (was CODE)
       Address:  0xC76E Size: 0x24 Align: 2(1)
      poly_addnoise_eta2   0xC76E  Pub  Ref by:   indcpa_enc_cmp (indcpa)
                                                  indcpa_enc (indcpa)
    --------------------------------------------------
       Segment part 18, <CODE> 1
                      (was CODE)
       Address:  0xC792 Size: 0x1C Align: 2(1)
      poly_getnoise_eta1   0xC792  Pub  Ref by:   indcpa_enc_cmp (indcpa)
                                                  indcpa_enc (indcpa)
                                                  indcpa_keypair (indcpa)
    --------------------------------------------------
       Segment part 20, <CODE> 1
                      (was CODE)
       Address:  0xC7AE Size: 0x12 Align: 2(1)
      poly_ntt             0xC7AE  Pub  Ref by:   polyvec_ntt (polyvec)
                                                  indcpa_dec (indcpa)
                                                  indcpa_keypair (indcpa)
    --------------------------------------------------
       Segment part 21, <CODE> 1
                      (was CODE)
       Address:  0xC7C0 Size: 0x4 Align: 2(1)
      poly_invntt_tomont   0xC7C0  Pub  Ref by:   indcpa_dec (indcpa)
                                                  indcpa_enc_cmp (indcpa)
                                                  indcpa_enc (indcpa)
                                                  indcpa_keypair (indcpa)
    --------------------------------------------------
       Segment part 22, <CODE> 1
                      (was CODE)
       Address:  0xC7C4 Size: 0x8 Align: 2(1)
      poly_basemul_montgomery  0xC7C4  Pub  Ref by:   indcpa_enc_cmp (indcpa)
                                                      indcpa_enc (indcpa)
    --------------------------------------------------
       Segment part 23, <CODE> 1
                      (was CODE)
       Address:  0xC7CC Size: 0x8E Align: 2(1)
      poly_frombytes_mul   0xC7CC  Pub  Ref by:   indcpa_dec (indcpa)
    --------------------------------------------------
       Segment part 24, <CODE> 1
                      (was CODE)
       Address:  0xC85A Size: 0x8 Align: 2(1)
       Ref by:   poly_basemul_acc
                 poly_frombytes_mul
    --------------------------------------------------
       Segment part 25, <CODE> 1
                      (was CODE)
       Address:  0xC862 Size: 0xB0 Align: 2(1)
      poly_frombytes_mul_acc  0xC862  Pub  Ref by:   indcpa_dec (indcpa)
    --------------------------------------------------
       Segment part 26, <CODE> 1
                      (was CODE)
       Address:  0xC912 Size: 0x5C Align: 2(1)
      poly_basemul_acc     0xC912  Pub  Ref by:   indcpa_enc_cmp (indcpa)
                                                  indcpa_enc (indcpa)
    --------------------------------------------------
       Segment part 28, <CODE> 1
                      (was CODE)
       Address:  0xE280 Size: 0x4 Align: 2(1)
      poly_reduce          0xE280  Pub  Ref by:   matacc (matacc)
                                                  indcpa_dec (indcpa)
                                                  indcpa_enc_cmp (indcpa)
                                                  indcpa_enc (indcpa)
    --------------------------------------------------
       Segment part 29, <CODE> 1
                      (was CODE)
       Address:  0xE1CE Size: 0x32 Align: 2(1)
      poly_add             0xE1CE  Pub  Ref by:   indcpa_enc_cmp (indcpa)
                                                  indcpa_enc (indcpa)
    --------------------------------------------------
       Segment part 30, <CODE> 1
                      (was CODE)
       Address:  0xE19C Size: 0x32 Align: 2(1)
      poly_sub             0xE19C  Pub  Ref by:   indcpa_dec (indcpa)
**************************************************************
File: C:\Users\dong\Desktop\MSP430 Code\2025ches_msp430\kyber\opt\opt_kyber\Release\Obj\polyvec.r43
  Module: polyvec
       Segment part 4, <CODE> 1
                      (was CODE)
       Address:  0xE200 Size: 0x1E Align: 2(1)
      polyvec_tobytes      0xE200  Pub  Ref by:   indcpa_keypair (indcpa)
    --------------------------------------------------
       Segment part 6, <CODE> 1
                      (was CODE)
       Address:  0xE238 Size: 0x16 Align: 2(1)
      polyvec_ntt          0xE238  Pub  Ref by:   indcpa_enc_cmp (indcpa)
                                                  indcpa_enc (indcpa)
                                                  indcpa_keypair (indcpa)
**************************************************************
File: C:\Users\dong\Desktop\MSP430 Code\2025ches_msp430\kyber\opt\opt_kyber\Release\Obj\randombytes.r43
  Module: randombytes
       Segment part 2, <CODE> 1
                      (was CODE)
       Address:  0xE122 Size: 0x42 Align: 2(1)
      randombytes          0xE122  Pub  Ref by:   crypto_kem_enc (kem)
                                                  crypto_kem_keypair (kem)
                                                  indcpa_keypair (indcpa)
**************************************************************
File: C:\Users\dong\Desktop\MSP430 Code\2025ches_msp430\kyber\opt\opt_kyber\Release\Obj\reduce.r43
  Module: reduce
       Segment part 2, <CODE> 1
                      (was CODE)
       Address:  0xE164 Size: 0x38 Align: 2(1)
      montgomery_reduce    0xE164  Pub  Ref by:   basemul_OP (ntt)
                                                  basemul (ntt)
**************************************************************
File: C:\Users\dong\Desktop\MSP430 Code\2025ches_msp430\kyber\opt\opt_kyber\Release\Obj\symmetric-shake.r43
  Module: symmetric-shake
       Segment part 2, <CODE> 1
                      (was CODE)
       Address:  0xDF60 Size: 0x2A Align: 2(1)
      kyber_shake128_absorb  0xDF60  Pub  Ref by:   matacc (matacc)
    --------------------------------------------------
       Segment part 3, <CODE> 1
                      (was CODE)
       Address:  0xDF8A Size: 0x8 Align: 2(1)
       Ref by:   kyber_shake256_prf
                 kyber_shake128_absorb
    --------------------------------------------------
       Segment part 4, <CODE> 1
                      (was CODE)
       Address:  0xDF92 Size: 0x2E Align: 2(1)
      kyber_shake256_prf   0xDF92  Pub  Ref by:   poly_getnoise_eta1 (poly)
                                                  poly_addnoise_eta2 (poly)
                                                  poly_addnoise_eta1 (poly)
**************************************************************
File: C:\Users\dong\Desktop\MSP430 Code\2025ches_msp430\kyber\opt\opt_kyber\Release\Obj\verify.r43
  Module: verify
       Segment part 3, <CODE> 1
                      (was CODE)
       Address:  0xE01E Size: 0x5E Align: 2(1)
      cmov                 0xE01E  Pub  Ref by:   crypto_kem_dec (kem)
**************************************************************
File: C:\Program Files\IAR Systems\Embedded Workbench 9.1\430\lib\dlib\dl430xlsfn.r43
  Module: ?abort
  ============================================================
  Module: ?_exit
       Segment part 0, <CODE> 1
                      (was CODE)
       Address:  0xE278 Size: 0x0 Align: 2(1)
      _exit                0xE278  Pub  Ref by:   exit (?exit)
    --------------------------------------------------
       Segment part 6, <CODE> 1
                      (was CODE)
       Address:  0xE278 Size: 0x4 Align: 2(1)
       Ref by:   _exit
  ============================================================
  Module: ?cppinit
  ============================================================
  Module: ?cstart
       Segment part 1, CSTACK
       Address:  0x9B60 Size: 0x0 Align: 2(1)
    --------------------------------------------------
       Segment part 5, CODE_I
       Address:  0x1C00 Size: 0x0 Align: 2(1)
    --------------------------------------------------
       Segment part 6, CODE_ID
       Address:  0xE288 Size: 0x0 Align: 2(1)
    --------------------------------------------------
       Segment part 7, DATA20_Z
       Address:  0x1C00 Size: 0x0 Align: 2(1)
    --------------------------------------------------
       Segment part 8, DATA20_I
       Address:  0x1C00 Size: 0x0 Align: 2(1)
    --------------------------------------------------
       Segment part 9, DATA20_ID
       Address:  0xE288 Size: 0x0 Align: 2(1)
    --------------------------------------------------
       Segment part 10, DATA20_C
       Address:  0xE288 Size: 0x0 Align: 2(1)
    --------------------------------------------------
       Segment part 12, DATA20_N
       Address:  0x1C00 Size: 0x0 Align: 2(1)
    --------------------------------------------------
       Segment part 15, CSTART
       Address:  0xC100 Size: 0x4 Align: 2(1)
      __program_start      0xC100  Pub  Ref by:   ?reset_vector (?reset_vector)
                                                  Absolute parts (?ABS_ENTRY_MOD)
      ?cstart_begin        0xC100  Pub
    --------------------------------------------------
       Segment part 27, CSTART
       Address:  0xC104 Size: 0x8 Align: 2(1)
       Ref by:   Segment part 15
      ?cstart_call_main    0xC104  Pub
      ?cstart_end          0xC10C  Pub
  ============================================================
  Module: lowinit
  ============================================================
  Module: ?reset_vector
       Segment part 0, RESET
       Address:  0xFFFE Size: 0x2 Align: 2(1)
      ?reset_vector        0xFFFE  Pub  Ref by:   Segment part 15 (?cstart)
  ============================================================
  Module: ?exit
       Segment part 2, <CODE> 1
                      (was CODE)
       Address:  0xE27C Size: 0x4 Align: 2(1)
      exit                 0xE27C  Pub  Ref by:   Segment part 27 (?cstart)
  ============================================================
  Module: ?FrwpInit
  ============================================================
  Module: ?malloc
  ============================================================
  Module: ?ShiftLeft32
       Segment part 2, <CODE> 1
                      (was CODE)
       Address:  0xE21E Size: 0x4 Align: 2(1)
      ?ShiftLeft32_6       0xE21E  Pub  Ref by:   poly_unpackdecompress (poly)
    --------------------------------------------------
       Segment part 3, <CODE> 1
                      (was CODE)
       Address:  0xE222 Size: 0x4 Align: 2(1)
       Ref by:   ?ShiftLeft32_6
      ?ShiftLeft32_5       0xE222  Pub
    --------------------------------------------------
       Segment part 4, <CODE> 1
                      (was CODE)
       Address:  0xE226 Size: 0x4 Align: 2(1)
       Ref by:   ?ShiftLeft32_5
      ?ShiftLeft32_4       0xE226  Pub
    --------------------------------------------------
       Segment part 5, <CODE> 1
                      (was CODE)
       Address:  0xE22A Size: 0xE Align: 2(1)
       Ref by:   ?ShiftLeft32_4
      ?ShiftLeft32_3       0xE22A  Pub
  ============================================================
  Module: ?ShiftLeft64
  ============================================================
  Module: ?ShiftLeft64_n
  ============================================================
  Module: ?ShiftRight16s_n
       Segment part 4, <CODE> 1
                      (was CODE)
       Address:  0xE270 Size: 0x8 Align: 2(1)
      ?ShiftRight16s_3     0xE270  Pub  Ref by:   poly_tomsg (poly)
                                                  poly_compress (poly)
                                                  cmp_poly_compress (poly)
  ============================================================
  Module: ?ShiftRight32u
       Segment part 0, <CODE> 1
                      (was CODE)
       Address:  0xDFC0 Size: 0x40 Align: 2(1)
      ?ShiftRight32u       0xDFC0  Pub  Ref by:   poly_cbd_eta2 (cbd)
                                                  poly_cbd_eta1 (cbd)
    --------------------------------------------------
       Segment part 1, <CODE> 1
                      (was CODE)
       Address:  0xE000 Size: 0x4 Align: 2(1)
       Ref by:   ?ShiftRight32u
      ?ShiftRight32u_7     0xE000  Pub
    --------------------------------------------------
       Segment part 2, <CODE> 1
                      (was CODE)
       Address:  0xE004 Size: 0x4 Align: 2(1)
       Ref by:   ?ShiftRight32u_7
      ?ShiftRight32u_6     0xE004  Pub
    --------------------------------------------------
       Segment part 3, <CODE> 1
                      (was CODE)
       Address:  0xE008 Size: 0x4 Align: 2(1)
       Ref by:   ?ShiftRight32u_6
      ?ShiftRight32u_5     0xE008  Pub
    --------------------------------------------------
       Segment part 4, <CODE> 1
                      (was CODE)
       Address:  0xE00C Size: 0x4 Align: 2(1)
       Ref by:   ?ShiftRight32u_5
      ?ShiftRight32u_4     0xE00C  Pub
    --------------------------------------------------
       Segment part 5, <CODE> 1
                      (was CODE)
       Address:  0xE010 Size: 0x4 Align: 2(1)
       Ref by:   ?ShiftRight32u_4
      ?ShiftRight32u_3     0xE010  Pub
    --------------------------------------------------
       Segment part 6, <CODE> 1
                      (was CODE)
       Address:  0xE014 Size: 0xA Align: 2(1)
       Ref by:   ?ShiftRight32u_3
      ?ShiftRight32u_2     0xE014  Pub
  ============================================================
  Module: ?ShiftRight64u
  ============================================================
  Module: ?memcpy
       Segment part 2, <CODE> 1
                      (was CODE)
       Address:  0xE24E Size: 0x12 Align: 2(1)
      memcpy               0xE24E  Pub  Ref by:   kyber_shake256_prf (symmetric-shake)
                                                  kyber_shake128_absorb (symmetric-shake)
                                                  indcpa_keypair (indcpa)
  ============================================================
  Module: ?memmove
  ============================================================
  Module: ?ClearMemoryWords
       Segment part 0, <CODE> 1
                      (was CODE)
       Address:  0xE260 Size: 0x10 Align: 2(1)
      ?ClearMemoryWords    0xE260  Pub  Ref by:   indcpa_keypair (indcpa)
  ============================================================
  Module: ?memzero
  ============================================================
  Module: ?MpuInit
  ============================================================
  Module: ?setjmp
  ============================================================
  Module: ?longjmp
  ============================================================
  Module: ?IndCallR11
  ============================================================
  Module: ?IndCallR15
  ============================================================
  Module: ?xcloseall
  ============================================================
  Module: ?xgetmemchunk
  ============================================================
  Module: ?__exit
       Segment part 2, <CODE> 1
                      (was CODE)
       Address:  0xE284 Size: 0x4 Align: 2(1)
      __exit               0xE284  Pub  Ref by:   Segment part 6 (?_exit)
                                                  _exit (?_exit)
  ============================================================
  Module: ?xxmemxfree
  ============================================================
  Module: ?xxmemxmalloc


                ****************************************
                *                                      *
                *      SEGMENTS IN ADDRESS ORDER       *
                *                                      *
                ****************************************

SEGMENT    SPACE     START/END ADDRESS        SIZE  TYPE  ALIGN
-------    -----   ---------------------      ----  ----  -----
DATA20_I                  0x1C00                     rel   2(1)
DATA20_Z                  0x1C00                     rel   2(1)
DATA20_N                  0x1C00                     rel   2(1)
CODE_I                    0x1C00                     rel   2(1)
CSTACK                0x9B60 - 0x9BFF         0xA0   rel   2(1)
DATA16_C              0xC000 - 0xC0FF        0x100   rel   2(1)
CSTART                0xC100 - 0xC10B          0xC   rel   2(1)
<CODE> 1              0xC10C - 0xE287       0x217C   rel   2(1)
CODE_ID                   0xE288                     rel   2(1)
DATA20_ID                 0xE288                     rel   2(1)
DATA20_C                  0xE288                     rel   2(1)
RESET                 0xFFFE - 0xFFFF          0x2   rel   2(1)
<CODE> 2          0x00010000 - 0x00032261  0x22262   rel   2(1)
DATA16_AN             0x015C - 0x015D          0x2   abs   1(0)

 148'460 bytes of CODE  memory
     160 bytes of DATA  memory (+ 2 absolute )
     256 bytes of CONST memory

Errors: none
Warnings: none
